; ModuleID = '20/56.c'
source_filename = "20/56.c"
target datalayout = "e-m:e-p270:32:32-p271:32:32-p272:64:64-i64:64-f80:128-n8:16:32:64-S128"
target triple = "x86_64-pc-linux-gnu"

@.str = private unnamed_addr constant [6 x i8] c"%s %s\00", align 1
@.str.1 = private unnamed_addr constant [3 x i8] c"%c\00", align 1
@.str.2 = private unnamed_addr constant [3 x i8] c"%s\00", align 1
@.str.3 = private unnamed_addr constant [2 x i8] c"\0A\00", align 1

; Function Attrs: noinline nounwind uwtable
define dso_local void @main() #0 {
  %1 = alloca i32, align 4
  %2 = alloca i32, align 4
  %3 = alloca i32, align 4
  %4 = alloca [10 x i8], align 1
  %5 = alloca [3 x i8], align 1
  store i32 0, i32* %3, align 4
  br label %6

6:                                                ; preds = %52, %0
  %7 = getelementptr inbounds [10 x i8], [10 x i8]* %4, i64 0, i64 0
  %8 = getelementptr inbounds [3 x i8], [3 x i8]* %5, i64 0, i64 0
  %9 = call i32 (i8*, ...) @__isoc99_scanf(i8* getelementptr inbounds ([6 x i8], [6 x i8]* @.str, i64 0, i64 0), i8* %7, i8* %8)
  %10 = icmp ne i32 %9, -1
  br i1 %10, label %11, label %55

11:                                               ; preds = %6
  %12 = getelementptr inbounds [10 x i8], [10 x i8]* %4, i64 0, i64 0
  %13 = call i64 @strlen(i8* %12) #3
  %14 = trunc i64 %13 to i32
  store i32 %14, i32* %2, align 4
  store i32 0, i32* %1, align 4
  br label %15

15:                                               ; preds = %27, %11
  %16 = load i32, i32* %1, align 4
  %17 = getelementptr inbounds [10 x i8], [10 x i8]* %4, i64 0, i64 0
  %18 = call i32 @f(i8* %17)
  %19 = icmp sle i32 %16, %18
  br i1 %19, label %20, label %30

20:                                               ; preds = %15
  %21 = load i32, i32* %1, align 4
  %22 = sext i32 %21 to i64
  %23 = getelementptr inbounds [10 x i8], [10 x i8]* %4, i64 0, i64 %22
  %24 = load i8, i8* %23, align 1
  %25 = sext i8 %24 to i32
  %26 = call i32 (i8*, ...) @printf(i8* getelementptr inbounds ([3 x i8], [3 x i8]* @.str.1, i64 0, i64 0), i32 %25)
  br label %27

27:                                               ; preds = %20
  %28 = load i32, i32* %1, align 4
  %29 = add nsw i32 %28, 1
  store i32 %29, i32* %1, align 4
  br label %15

30:                                               ; preds = %15
  %31 = getelementptr inbounds [3 x i8], [3 x i8]* %5, i64 0, i64 0
  %32 = call i32 (i8*, ...) @printf(i8* getelementptr inbounds ([3 x i8], [3 x i8]* @.str.2, i64 0, i64 0), i8* %31)
  %33 = getelementptr inbounds [10 x i8], [10 x i8]* %4, i64 0, i64 0
  %34 = call i32 @f(i8* %33)
  %35 = add nsw i32 %34, 1
  store i32 %35, i32* %1, align 4
  br label %36

36:                                               ; preds = %47, %30
  %37 = load i32, i32* %1, align 4
  %38 = load i32, i32* %2, align 4
  %39 = icmp slt i32 %37, %38
  br i1 %39, label %40, label %50

40:                                               ; preds = %36
  %41 = load i32, i32* %1, align 4
  %42 = sext i32 %41 to i64
  %43 = getelementptr inbounds [10 x i8], [10 x i8]* %4, i64 0, i64 %42
  %44 = load i8, i8* %43, align 1
  %45 = sext i8 %44 to i32
  %46 = call i32 (i8*, ...) @printf(i8* getelementptr inbounds ([3 x i8], [3 x i8]* @.str.1, i64 0, i64 0), i32 %45)
  br label %47

47:                                               ; preds = %40
  %48 = load i32, i32* %1, align 4
  %49 = add nsw i32 %48, 1
  store i32 %49, i32* %1, align 4
  br label %36

50:                                               ; preds = %36
  %51 = call i32 (i8*, ...) @printf(i8* getelementptr inbounds ([2 x i8], [2 x i8]* @.str.3, i64 0, i64 0))
  br label %52

52:                                               ; preds = %50
  %53 = load i32, i32* %3, align 4
  %54 = add nsw i32 %53, 1
  store i32 %54, i32* %3, align 4
  br label %6

55:                                               ; preds = %6
  ret void
}

declare dso_local i32 @__isoc99_scanf(i8*, ...) #1

; Function Attrs: nounwind readonly
declare dso_local i64 @strlen(i8*) #2

; Function Attrs: noinline nounwind uwtable
define dso_local i32 @f(i8* %0) #0 {
  %2 = alloca i8*, align 8
  %3 = alloca i8, align 1
  %4 = alloca i32, align 4
  %5 = alloca i32, align 4
  %6 = alloca i32, align 4
  store i8* %0, i8** %2, align 8
  store i32 0, i32* %6, align 4
  %7 = load i8*, i8** %2, align 8
  %8 = getelementptr inbounds i8, i8* %7, i64 0
  %9 = load i8, i8* %8, align 1
  store i8 %9, i8* %3, align 1
  %10 = load i8*, i8** %2, align 8
  %11 = call i64 @strlen(i8* %10) #3
  %12 = trunc i64 %11 to i32
  store i32 %12, i32* %4, align 4
  store i32 1, i32* %5, align 4
  br label %13

13:                                               ; preds = %35, %1
  %14 = load i32, i32* %5, align 4
  %15 = load i32, i32* %4, align 4
  %16 = icmp slt i32 %14, %15
  br i1 %16, label %17, label %38

17:                                               ; preds = %13
  %18 = load i8*, i8** %2, align 8
  %19 = load i32, i32* %5, align 4
  %20 = sext i32 %19 to i64
  %21 = getelementptr inbounds i8, i8* %18, i64 %20
  %22 = load i8, i8* %21, align 1
  %23 = sext i8 %22 to i32
  %24 = load i8, i8* %3, align 1
  %25 = sext i8 %24 to i32
  %26 = icmp sgt i32 %23, %25
  br i1 %26, label %27, label %34

27:                                               ; preds = %17
  %28 = load i8*, i8** %2, align 8
  %29 = load i32, i32* %5, align 4
  %30 = sext i32 %29 to i64
  %31 = getelementptr inbounds i8, i8* %28, i64 %30
  %32 = load i8, i8* %31, align 1
  store i8 %32, i8* %3, align 1
  %33 = load i32, i32* %5, align 4
  store i32 %33, i32* %6, align 4
  br label %34

34:                                               ; preds = %27, %17
  br label %35

35:                                               ; preds = %34
  %36 = load i32, i32* %5, align 4
  %37 = add nsw i32 %36, 1
  store i32 %37, i32* %5, align 4
  br label %13

38:                                               ; preds = %13
  %39 = load i32, i32* %6, align 4
  ret i32 %39
}

declare dso_local i32 @printf(i8*, ...) #1


!llvm.module.flags = !{!0}
!llvm.ident = !{!1}

!0 = !{i32 1, !"wchar_size", i32 4}
!1 = !{!"clang version 10.0.0-4ubuntu1 "}
